target datalayout = "e-m:e-p270:32:32-p271:32:32-p272:64:64-i64:64-i128:128-f80:128-n8:16:32:64-S128"
target triple = "x86_64-unknown-linux-gnu"

%"struct.cvc5::internal::Minisat::Lit" = type { i32 }
%"struct.cvc5::internal::Minisat::SimpSolver::ClauseDeleted" = type { ptr }
%"struct.cvc5::internal::Minisat::SimpSolver::ElimLt" = type { ptr }
%"class.cvc5::internal::Minisat::vec.4" = type { ptr, i32, i32 }
%"class.cvc5::internal::Minisat::SimpSolver" = type <{ %"class.cvc5::internal::Minisat::Solver.base", [2 x i8], i32, i32, i32, double, i8, i8, [2 x i8], i32, i32, i32, i32, i8, [3 x i8], %"class.cvc5::internal::Minisat::vec.5", %"class.cvc5::internal::Minisat::vec.8", %"class.cvc5::internal::Minisat::OccLists.11", %"class.cvc5::internal::Minisat::vec.9", %"class.cvc5::internal::Minisat::Heap.13", %"class.cvc5::internal::Minisat::Queue", %"class.cvc5::internal::Minisat::vec.8", %"class.cvc5::internal::Minisat::vec.8", i32, i32, i32, [4 x i8] }>
%"class.cvc5::internal::Minisat::Solver.base" = type <{ %"class.cvc5::internal::EnvObj", ptr, ptr, i32, i32, i32, [4 x i8], %"class.std::unique_ptr", i8, [7 x i8], %"class.cvc5::internal::Minisat::vec", %"class.cvc5::internal::Minisat::vec.2", i8, i8, [6 x i8], %"class.cvc5::internal::Minisat::vec.3", %"class.cvc5::internal::Minisat::vec.4", i32, [4 x i8], double, double, double, double, i8, [3 x i8], i32, i32, i8, i8, [2 x i8], double, i32, [4 x i8], double, double, double, i32, [4 x i8], double, i64, i64, i64, i64, i64, i64, i64, i64, i64, i64, i64, i64, i8, [7 x i8], %"class.cvc5::internal::Minisat::vec.5", %"class.cvc5::internal::Minisat::vec.5", double, %"class.cvc5::internal::Minisat::vec.6", double, %"class.cvc5::internal::Minisat::OccLists", %"class.cvc5::internal::Minisat::vec.3", %"class.cvc5::internal::Minisat::vec.9", %"class.cvc5::internal::Minisat::vec.8", %"class.cvc5::internal::Minisat::vec.8", %"class.cvc5::internal::Minisat::vec.9", %"class.cvc5::internal::Minisat::vec.4", %"class.cvc5::internal::Minisat::vec.9", %"class.cvc5::internal::Minisat::vec.2", %"class.cvc5::internal::Minisat::vec.10", i32, i32, i64, %"class.cvc5::internal::Minisat::vec.4", %"class.cvc5::internal::Minisat::Heap", double, i8, [7 x i8], %"class.cvc5::internal::Minisat::ClauseAllocator", %"class.cvc5::internal::Minisat::vec.2", %"class.cvc5::internal::Minisat::vec.8", %"class.cvc5::internal::Minisat::vec.4", %"class.cvc5::internal::Minisat::vec.4", %"class.cvc5::internal::Minisat::vec.4", double, double, i32, [4 x i8], i64, i64, i8, i8 }>
%"class.cvc5::internal::EnvObj" = type { ptr, ptr }
%"class.std::unique_ptr" = type { %"struct.std::__uniq_ptr_data" }
%"struct.std::__uniq_ptr_data" = type { %"class.std::__uniq_ptr_impl" }
%"class.std::__uniq_ptr_impl" = type { %"class.std::tuple" }
%"class.std::tuple" = type { %"struct.std::_Tuple_impl" }
%"struct.std::_Tuple_impl" = type { %"struct.std::_Head_base.1" }
%"struct.std::_Head_base.1" = type { ptr }
%"class.cvc5::internal::Minisat::vec" = type { ptr, i32, i32 }
%"class.cvc5::internal::Minisat::vec.6" = type { ptr, i32, i32 }
%"class.cvc5::internal::Minisat::OccLists" = type { %"class.cvc5::internal::Minisat::vec.7", %"class.cvc5::internal::Minisat::vec.8", %"class.cvc5::internal::Minisat::vec.4", %"struct.cvc5::internal::Minisat::Solver::WatcherDeleted" }
%"class.cvc5::internal::Minisat::vec.7" = type { ptr, i32, i32 }
%"struct.cvc5::internal::Minisat::Solver::WatcherDeleted" = type { ptr }
%"class.cvc5::internal::Minisat::vec.3" = type { ptr, i32, i32 }
%"class.cvc5::internal::Minisat::vec.10" = type { ptr, i32, i32 }
%"class.cvc5::internal::Minisat::Heap" = type { %"struct.cvc5::internal::Minisat::Solver::VarOrderLt", %"class.cvc5::internal::Minisat::vec.9", %"class.cvc5::internal::Minisat::vec.9" }
%"struct.cvc5::internal::Minisat::Solver::VarOrderLt" = type { ptr }
%"class.cvc5::internal::Minisat::ClauseAllocator" = type { %"class.cvc5::internal::Minisat::RegionAllocator.base", i8, [3 x i8] }
%"class.cvc5::internal::Minisat::RegionAllocator.base" = type <{ ptr, i32, i32, i32 }>
%"class.cvc5::internal::Minisat::vec.2" = type { ptr, i32, i32 }
%"class.cvc5::internal::Minisat::vec.5" = type { ptr, i32, i32 }
%"class.cvc5::internal::Minisat::OccLists.11" = type { %"class.cvc5::internal::Minisat::vec.12", %"class.cvc5::internal::Minisat::vec.8", %"class.cvc5::internal::Minisat::vec.9", %"struct.cvc5::internal::Minisat::SimpSolver::ClauseDeleted" }
%"class.cvc5::internal::Minisat::vec.12" = type { ptr, i32, i32 }
%"class.cvc5::internal::Minisat::vec.9" = type { ptr, i32, i32 }
%"class.cvc5::internal::Minisat::Heap.13" = type { %"struct.cvc5::internal::Minisat::SimpSolver::ElimLt", %"class.cvc5::internal::Minisat::vec.9", %"class.cvc5::internal::Minisat::vec.9" }
%"class.cvc5::internal::Minisat::Queue" = type { %"class.cvc5::internal::Minisat::vec.5", i32, i32 }
%"class.cvc5::internal::Minisat::vec.8" = type { ptr, i32, i32 }
%"class.cvc5::internal::Minisat::Clause" = type { %struct.anon, [0 x %union.anon.273] }
%struct.anon = type { i64 }
%union.anon.273 = type { %"struct.cvc5::internal::Minisat::Lit" }

; Function Attrs: mustprogress nounwind uwtable
define linkonce_odr hidden noundef zeroext i1 @_ZNK4cvc58internal7Minisat3LiteqES2_(ptr noundef nonnull align 4 dereferenceable(4) %this, i32 %p.coerce) #4 comdat align 2 {
entry:
  %p = alloca %"struct.cvc5::internal::Minisat::Lit", align 4
  %this.addr = alloca ptr, align 8
  %coerce.dive = getelementptr inbounds %"struct.cvc5::internal::Minisat::Lit", ptr %p, i32 0, i32 0
  store i32 %p.coerce, ptr %coerce.dive, align 4
  store ptr %this, ptr %this.addr, align 8
  %this1 = load ptr, ptr %this.addr, align 8
  %x = getelementptr inbounds %"struct.cvc5::internal::Minisat::Lit", ptr %this1, i32 0, i32 0
  %0 = load i32, ptr %x, align 4
  %x2 = getelementptr inbounds %"struct.cvc5::internal::Minisat::Lit", ptr %p, i32 0, i32 0
  %1 = load i32, ptr %x2, align 4
  %cmp = icmp eq i32 %0, %1
  ret i1 %cmp
}

; Function Attrs: mustprogress nounwind uwtable
define linkonce_odr hidden i32 @_ZN4cvc58internal7MinisatcoENS1_3LitE(i32 %p.coerce) #4 comdat {
entry:
  %retval = alloca %"struct.cvc5::internal::Minisat::Lit", align 4
  %p = alloca %"struct.cvc5::internal::Minisat::Lit", align 4
  %coerce.dive = getelementptr inbounds %"struct.cvc5::internal::Minisat::Lit", ptr %p, i32 0, i32 0
  store i32 %p.coerce, ptr %coerce.dive, align 4
  %x = getelementptr inbounds %"struct.cvc5::internal::Minisat::Lit", ptr %p, i32 0, i32 0
  %0 = load i32, ptr %x, align 4
  %xor = xor i32 %0, 1
  %x1 = getelementptr inbounds %"struct.cvc5::internal::Minisat::Lit", ptr %retval, i32 0, i32 0
  store i32 %xor, ptr %x1, align 4
  %coerce.dive2 = getelementptr inbounds %"struct.cvc5::internal::Minisat::Lit", ptr %retval, i32 0, i32 0
  %1 = load i32, ptr %coerce.dive2, align 4
  ret i32 %1
}

; Function Attrs: mustprogress nounwind uwtable
define linkonce_odr hidden noundef i32 @_ZN4cvc58internal7Minisat3varENS1_3LitE(i32 %p.coerce) #4 comdat {
entry:
  %p = alloca %"struct.cvc5::internal::Minisat::Lit", align 4
  %coerce.dive = getelementptr inbounds %"struct.cvc5::internal::Minisat::Lit", ptr %p, i32 0, i32 0
  store i32 %p.coerce, ptr %coerce.dive, align 4
  %x = getelementptr inbounds %"struct.cvc5::internal::Minisat::Lit", ptr %p, i32 0, i32 0
  %0 = load i32, ptr %x, align 4
  %shr = ashr i32 %0, 1
  ret i32 %shr
}

; Function Attrs: mustprogress nounwind uwtable
define linkonce_odr hidden noundef ptr @_ZNK4cvc58internal7Minisat6ClausecvPKNS1_3LitEEv(ptr noundef nonnull align 4 dereferenceable(8) %this) #4 comdat align 2 {
entry:
  %this.addr = alloca ptr, align 8
  store ptr %this, ptr %this.addr, align 8
  %this1 = load ptr, ptr %this.addr, align 8
  %data = getelementptr inbounds %"class.cvc5::internal::Minisat::Clause", ptr %this1, i32 0, i32 1
  %arraydecay = getelementptr inbounds [0 x %union.anon.273], ptr %data, i64 0, i64 0
  ret ptr %arraydecay
}

; Function Attrs: mustprogress nounwind uwtable
define linkonce_odr hidden noundef i32 @_ZNK4cvc58internal7Minisat6Clause4sizeEv(ptr noundef nonnull align 4 dereferenceable(8) %this) #4 comdat align 2 {
entry:
  %this.addr = alloca ptr, align 8
  store ptr %this, ptr %this.addr, align 8
  %this1 = load ptr, ptr %this.addr, align 8
  %header = getelementptr inbounds %"class.cvc5::internal::Minisat::Clause", ptr %this1, i32 0, i32 0
  %bf.load = load i64, ptr %header, align 4
  %bf.lshr = lshr i64 %bf.load, 5
  %bf.clear = and i64 %bf.lshr, 134217727
  %bf.cast = trunc i64 %bf.clear to i32
  ret i32 %bf.cast
}

; Function Attrs: mustprogress uwtable
define hidden noundef zeroext i1 @_ZN4cvc58internal7Minisat10SimpSolver5mergeERKNS1_6ClauseES5_iRi(ptr noundef nonnull align 8 dereferenceable(1108) %this, ptr noundef nonnull align 4 dereferenceable(8) %_ps, ptr noundef nonnull align 4 dereferenceable(8) %_qs, i32 noundef %v, ptr noundef nonnull align 4 dereferenceable(4) %size) #5 align 2 {
entry:
  %retval = alloca i1, align 1
  %this.addr = alloca ptr, align 8
  %_ps.addr = alloca ptr, align 8
  %_qs.addr = alloca ptr, align 8
  %v.addr = alloca i32, align 4
  %size.addr = alloca ptr, align 8
  %ps_smallest = alloca i8, align 1
  %ps = alloca ptr, align 8
  %qs = alloca ptr, align 8
  %__ps = alloca ptr, align 8
  %__qs = alloca ptr, align 8
  %i = alloca i32, align 4
  %agg.tmp = alloca %"struct.cvc5::internal::Minisat::Lit", align 4
  %j = alloca i32, align 4
  %agg.tmp19 = alloca %"struct.cvc5::internal::Minisat::Lit", align 4
  %agg.tmp24 = alloca %"struct.cvc5::internal::Minisat::Lit", align 4
  %agg.tmp33 = alloca %"struct.cvc5::internal::Minisat::Lit", align 4
  %agg.tmp34 = alloca %"struct.cvc5::internal::Minisat::Lit", align 4
  store ptr %this, ptr %this.addr, align 8
  store ptr %_ps, ptr %_ps.addr, align 8
  store ptr %_qs, ptr %_qs.addr, align 8
  store i32 %v, ptr %v.addr, align 4
  store ptr %size, ptr %size.addr, align 8
  %this1 = load ptr, ptr %this.addr, align 8
  %merges = getelementptr inbounds %"class.cvc5::internal::Minisat::SimpSolver", ptr %this1, i32 0, i32 9
  %0 = load i32, ptr %merges, align 4
  %inc = add nsw i32 %0, 1
  store i32 %inc, ptr %merges, align 4
  %1 = load ptr, ptr %_ps.addr, align 8
  %call = call noundef i32 @_ZNK4cvc58internal7Minisat6Clause4sizeEv(ptr noundef nonnull align 4 dereferenceable(8) %1)
  %2 = load ptr, ptr %_qs.addr, align 8
  %call2 = call noundef i32 @_ZNK4cvc58internal7Minisat6Clause4sizeEv(ptr noundef nonnull align 4 dereferenceable(8) %2)
  %cmp = icmp slt i32 %call, %call2
  %frombool = zext i1 %cmp to i8
  store i8 %frombool, ptr %ps_smallest, align 1
  %3 = load i8, ptr %ps_smallest, align 1
  %tobool = trunc i8 %3 to i1
  br i1 %tobool, label %cond.true, label %cond.false

cond.true:                                        ; preds = %entry
  %4 = load ptr, ptr %_qs.addr, align 8
  br label %cond.end

cond.false:                                       ; preds = %entry
  %5 = load ptr, ptr %_ps.addr, align 8
  br label %cond.end

cond.end:                                         ; preds = %cond.false, %cond.true
  %cond-lvalue = phi ptr [ %4, %cond.true ], [ %5, %cond.false ]
  store ptr %cond-lvalue, ptr %ps, align 8
  %6 = load i8, ptr %ps_smallest, align 1
  %tobool3 = trunc i8 %6 to i1
  br i1 %tobool3, label %cond.true4, label %cond.false5

cond.true4:                                       ; preds = %cond.end
  %7 = load ptr, ptr %_ps.addr, align 8
  br label %cond.end6

cond.false5:                                      ; preds = %cond.end
  %8 = load ptr, ptr %_qs.addr, align 8
  br label %cond.end6

cond.end6:                                        ; preds = %cond.false5, %cond.true4
  %cond-lvalue7 = phi ptr [ %7, %cond.true4 ], [ %8, %cond.false5 ]
  store ptr %cond-lvalue7, ptr %qs, align 8
  %9 = load ptr, ptr %ps, align 8
  %call8 = call noundef ptr @_ZNK4cvc58internal7Minisat6ClausecvPKNS1_3LitEEv(ptr noundef nonnull align 4 dereferenceable(8) %9)
  store ptr %call8, ptr %__ps, align 8
  %10 = load ptr, ptr %qs, align 8
  %call9 = call noundef ptr @_ZNK4cvc58internal7Minisat6ClausecvPKNS1_3LitEEv(ptr noundef nonnull align 4 dereferenceable(8) %10)
  store ptr %call9, ptr %__qs, align 8
  %11 = load ptr, ptr %ps, align 8
  %call10 = call noundef i32 @_ZNK4cvc58internal7Minisat6Clause4sizeEv(ptr noundef nonnull align 4 dereferenceable(8) %11)
  %sub = sub nsw i32 %call10, 1
  %12 = load ptr, ptr %size.addr, align 8
  store i32 %sub, ptr %12, align 4
  store i32 0, ptr %i, align 4
  br label %for.cond

for.cond:                                         ; preds = %for.inc46, %cond.end6
  %13 = load i32, ptr %i, align 4
  %14 = load ptr, ptr %qs, align 8
  %call11 = call noundef i32 @_ZNK4cvc58internal7Minisat6Clause4sizeEv(ptr noundef nonnull align 4 dereferenceable(8) %14)
  %cmp12 = icmp slt i32 %13, %call11
  br i1 %cmp12, label %for.body, label %for.end48

for.body:                                         ; preds = %for.cond
  %15 = load ptr, ptr %__qs, align 8
  %16 = load i32, ptr %i, align 4
  %idxprom = sext i32 %16 to i64
  %arrayidx = getelementptr inbounds %"struct.cvc5::internal::Minisat::Lit", ptr %15, i64 %idxprom
  call void @llvm.memcpy.p0.p0.i64(ptr align 4 %agg.tmp, ptr align 4 %arrayidx, i64 4, i1 false)
  %coerce.dive = getelementptr inbounds %"struct.cvc5::internal::Minisat::Lit", ptr %agg.tmp, i32 0, i32 0
  %17 = load i32, ptr %coerce.dive, align 4
  %call13 = call noundef i32 @_ZN4cvc58internal7Minisat3varENS1_3LitE(i32 %17)
  %18 = load i32, ptr %v.addr, align 4
  %cmp14 = icmp ne i32 %call13, %18
  br i1 %cmp14, label %if.then, label %if.end45

if.then:                                          ; preds = %for.body
  store i32 0, ptr %j, align 4
  br label %for.cond15

for.cond15:                                       ; preds = %for.inc, %if.then
  %19 = load i32, ptr %j, align 4
  %20 = load ptr, ptr %ps, align 8
  %call16 = call noundef i32 @_ZNK4cvc58internal7Minisat6Clause4sizeEv(ptr noundef nonnull align 4 dereferenceable(8) %20)
  %cmp17 = icmp slt i32 %19, %call16
  br i1 %cmp17, label %for.body18, label %for.end

for.body18:                                       ; preds = %for.cond15
  %21 = load ptr, ptr %__ps, align 8
  %22 = load i32, ptr %j, align 4
  %idxprom20 = sext i32 %22 to i64
  %arrayidx21 = getelementptr inbounds %"struct.cvc5::internal::Minisat::Lit", ptr %21, i64 %idxprom20
  call void @llvm.memcpy.p0.p0.i64(ptr align 4 %agg.tmp19, ptr align 4 %arrayidx21, i64 4, i1 false)
  %coerce.dive22 = getelementptr inbounds %"struct.cvc5::internal::Minisat::Lit", ptr %agg.tmp19, i32 0, i32 0
  %23 = load i32, ptr %coerce.dive22, align 4
  %call23 = call noundef i32 @_ZN4cvc58internal7Minisat3varENS1_3LitE(i32 %23)
  %24 = load ptr, ptr %__qs, align 8
  %25 = load i32, ptr %i, align 4
  %idxprom25 = sext i32 %25 to i64
  %arrayidx26 = getelementptr inbounds %"struct.cvc5::internal::Minisat::Lit", ptr %24, i64 %idxprom25
  call void @llvm.memcpy.p0.p0.i64(ptr align 4 %agg.tmp24, ptr align 4 %arrayidx26, i64 4, i1 false)
  %coerce.dive27 = getelementptr inbounds %"struct.cvc5::internal::Minisat::Lit", ptr %agg.tmp24, i32 0, i32 0
  %26 = load i32, ptr %coerce.dive27, align 4
  %call28 = call noundef i32 @_ZN4cvc58internal7Minisat3varENS1_3LitE(i32 %26)
  %cmp29 = icmp eq i32 %call23, %call28
  br i1 %cmp29, label %if.then30, label %if.end

if.then30:                                        ; preds = %for.body18
  %27 = load ptr, ptr %__ps, align 8
  %28 = load i32, ptr %j, align 4
  %idxprom31 = sext i32 %28 to i64
  %arrayidx32 = getelementptr inbounds %"struct.cvc5::internal::Minisat::Lit", ptr %27, i64 %idxprom31
  %29 = load ptr, ptr %__qs, align 8
  %30 = load i32, ptr %i, align 4
  %idxprom35 = sext i32 %30 to i64
  %arrayidx36 = getelementptr inbounds %"struct.cvc5::internal::Minisat::Lit", ptr %29, i64 %idxprom35
  call void @llvm.memcpy.p0.p0.i64(ptr align 4 %agg.tmp34, ptr align 4 %arrayidx36, i64 4, i1 false)
  %coerce.dive37 = getelementptr inbounds %"struct.cvc5::internal::Minisat::Lit", ptr %agg.tmp34, i32 0, i32 0
  %31 = load i32, ptr %coerce.dive37, align 4
  %call38 = call i32 @_ZN4cvc58internal7MinisatcoENS1_3LitE(i32 %31)
  %coerce.dive39 = getelementptr inbounds %"struct.cvc5::internal::Minisat::Lit", ptr %agg.tmp33, i32 0, i32 0
  store i32 %call38, ptr %coerce.dive39, align 4
  %coerce.dive40 = getelementptr inbounds %"struct.cvc5::internal::Minisat::Lit", ptr %agg.tmp33, i32 0, i32 0
  %32 = load i32, ptr %coerce.dive40, align 4
  %call41 = call noundef zeroext i1 @_ZNK4cvc58internal7Minisat3LiteqES2_(ptr noundef nonnull align 4 dereferenceable(4) %arrayidx32, i32 %32)
  br i1 %call41, label %if.then42, label %if.else

if.then42:                                        ; preds = %if.then30
  store i1 false, ptr %retval, align 1
  br label %return

if.else:                                          ; preds = %if.then30
  br label %next

if.end:                                           ; preds = %for.body18
  br label %for.inc

for.inc:                                          ; preds = %if.end
  %33 = load i32, ptr %j, align 4
  %inc43 = add nsw i32 %33, 1
  store i32 %inc43, ptr %j, align 4
  br label %for.cond15, !llvm.loop !26

for.end:                                          ; preds = %for.cond15
  %34 = load ptr, ptr %size.addr, align 8
  %35 = load i32, ptr %34, align 4
  %inc44 = add nsw i32 %35, 1
  store i32 %inc44, ptr %34, align 4
  br label %if.end45

if.end45:                                         ; preds = %for.end, %for.body
  br label %next

next:                                             ; preds = %if.end45, %if.else
  br label %for.inc46

for.inc46:                                        ; preds = %next
  %36 = load i32, ptr %i, align 4
  %inc47 = add nsw i32 %36, 1
  store i32 %inc47, ptr %i, align 4
  br label %for.cond, !llvm.loop !27

for.end48:                                        ; preds = %for.cond
  store i1 true, ptr %retval, align 1
  br label %return

return:                                           ; preds = %for.end48, %if.then42
  %37 = load i1, ptr %retval, align 1
  ret i1 %37
}