; Function Attrs: mustprogress nofree norecurse nosync nounwind memory(read, argmem: readwrite, inaccessiblemem: none) uwtable
define hidden noundef zeroext i1 @_ZN4cvc58internal7Minisat10SimpSolver5mergeERKNS1_6ClauseES5_iRi(ptr nocapture noundef nonnull align 8 dereferenceable(1108) %this, ptr nocapture noundef nonnull readonly align 4 dereferenceable(8) %_ps, ptr nocapture noundef nonnull readonly align 4 dereferenceable(8) %_qs, i32 noundef %v, ptr nocapture noundef nonnull writeonly align 4 dereferenceable(4) %size) local_unnamed_addr #8 align 2 {
entry:
  %merges = getelementptr inbounds i8, ptr %this, i64 876
  %0 = load i32, ptr %merges, align 4
  %inc = add nsw i32 %0, 1
  store i32 %inc, ptr %merges, align 4
  %bf.load.i = load i64, ptr %_ps, align 4
  %1 = trunc i64 %bf.load.i to i32
  %2 = lshr i32 %1, 5
  %bf.load.i20 = load i64, ptr %_qs, align 4
  %3 = trunc i64 %bf.load.i20 to i32
  %4 = lshr i32 %3, 5
  %cmp = icmp ult i32 %2, %4
  %5 = select i1 %cmp, i64 %bf.load.i20, i64 %bf.load.i
  %cond-lvalue = select i1 %cmp, ptr %_qs, ptr %_ps
  %cond-lvalue7 = select i1 %cmp, ptr %_ps, ptr %_qs
  %data.i = getelementptr inbounds i8, ptr %cond-lvalue, i64 8
  %data.i21 = getelementptr inbounds i8, ptr %cond-lvalue7, i64 8
  %6 = trunc i64 %5 to i32
  %7 = lshr i32 %6, 5
  %sub = add nsw i32 %7, -1
  store i32 %sub, ptr %size, align 4
  %bf.load.i2329 = load i64, ptr %cond-lvalue7, align 4
  %8 = and i64 %bf.load.i2329, 4294967264
  %cmp1230 = icmp eq i64 %8, 0
  br i1 %cmp1230, label %return, label %for.body

for.body:                                         ; preds = %entry, %for.inc46
  %bf.load.i2338 = phi i64 [ %bf.load.i23, %for.inc46 ], [ %bf.load.i2329, %entry ]
  %9 = phi i32 [ %13, %for.inc46 ], [ %sub, %entry ]
  %indvars.iv36 = phi i64 [ %indvars.iv.next37, %for.inc46 ], [ 0, %entry ]
  %arrayidx = getelementptr inbounds %"struct.cvc5::internal::Minisat::Lit", ptr %data.i21, i64 %indvars.iv36
  %agg.tmp.sroa.0.0.copyload = load i32, ptr %arrayidx, align 4
  %shr.i = ashr i32 %agg.tmp.sroa.0.0.copyload, 1
  %cmp14.not = icmp eq i32 %shr.i, %v
  br i1 %cmp14.not, label %for.inc46, label %for.cond15.preheader

for.cond15.preheader:                             ; preds = %for.body
  %bf.load.i24 = load i64, ptr %cond-lvalue, align 4
  %10 = and i64 %bf.load.i24, 4294967264
  %cmp1727.not = icmp eq i64 %10, 0
  br i1 %cmp1727.not, label %for.end, label %for.body18.preheader

for.body18.preheader:                             ; preds = %for.cond15.preheader
  %11 = lshr i64 %bf.load.i24, 5
  %wide.trip.count = and i64 %11, 134217727
  br label %for.body18

for.cond15:                                       ; preds = %for.body18
  %indvars.iv.next = add nuw nsw i64 %indvars.iv, 1
  %exitcond.not = icmp eq i64 %indvars.iv.next, %wide.trip.count
  br i1 %exitcond.not, label %for.end, label %for.body18, !llvm.loop !29

for.body18:                                       ; preds = %for.body18.preheader, %for.cond15
  %indvars.iv = phi i64 [ 0, %for.body18.preheader ], [ %indvars.iv.next, %for.cond15 ]
  %arrayidx21 = getelementptr inbounds %"struct.cvc5::internal::Minisat::Lit", ptr %data.i, i64 %indvars.iv
  %agg.tmp19.sroa.0.0.copyload = load i32, ptr %arrayidx21, align 4
  %shr.i25 = ashr i32 %agg.tmp19.sroa.0.0.copyload, 1
  %cmp29 = icmp eq i32 %shr.i25, %shr.i
  br i1 %cmp29, label %if.then30, label %for.cond15

if.then30:                                        ; preds = %for.body18
  %12 = xor i32 %agg.tmp19.sroa.0.0.copyload, %agg.tmp.sroa.0.0.copyload
  %cmp.i = icmp eq i32 %12, 1
  br i1 %cmp.i, label %return, label %for.inc46

for.end:                                          ; preds = %for.cond15, %for.cond15.preheader
  %inc44 = add nsw i32 %9, 1
  store i32 %inc44, ptr %size, align 4
  %bf.load.i23.pre = load i64, ptr %cond-lvalue7, align 4
  br label %for.inc46

for.inc46:                                        ; preds = %if.then30, %for.end, %for.body
  %bf.load.i23 = phi i64 [ %bf.load.i2338, %if.then30 ], [ %bf.load.i23.pre, %for.end ], [ %bf.load.i2338, %for.body ]
  %13 = phi i32 [ %9, %if.then30 ], [ %inc44, %for.end ], [ %9, %for.body ]
  %indvars.iv.next37 = add nuw nsw i64 %indvars.iv36, 1
  %14 = lshr i64 %bf.load.i23, 5
  %15 = and i64 %14, 134217727
  %cmp12.not = icmp ult i64 %indvars.iv.next37, %15
  br i1 %cmp12.not, label %for.body, label %return, !llvm.loop !30

return:                                           ; preds = %if.then30, %for.inc46, %entry
  %cmp12.lcssa = phi i1 [ true, %entry ], [ true, %for.inc46 ], [ false, %if.then30 ]
  ret i1 %cmp12.lcssa
}